; Function Attrs: mustprogress uwtable
define noundef ptr @_ZNK6icu_7718RelativeDateFormat20getDateFormatSymbolsEv(ptr noundef nonnull readonly align 8 captures(none) dereferenceable(456) %0) unnamed_addr #1 align 2 {
  %2 = getelementptr inbounds nuw i8, ptr %0, i64 48
  %3 = load ptr, ptr %2, align 8, !tbaa !6
  %4 = load ptr, ptr %3, align 8, !tbaa !3
  %5 = getelementptr inbounds nuw i8, ptr %4, i64 272
  %6 = load ptr, ptr %5, align 8
  %7 = tail call noundef ptr %6(ptr noundef nonnull align 8 dereferenceable(528) %3)
  ret ptr %7
}